; Function Attrs: nounwind uwtable
define internal ptr @pyobject_print_null(ptr readnone captures(none) %0, ptr noundef %1) #0 {
  %3 = alloca ptr, align 8
  call void @llvm.lifetime.start.p0(i64 8, ptr nonnull %3) #5
  %4 = call i32 (ptr, ptr, i64, i64, ...) @PyArg_UnpackTuple(ptr noundef %1, ptr noundef nonnull @.str, i64 noundef 1, i64 noundef 1, ptr noundef nonnull %3) #5
  %.not = icmp eq i32 %4, 0
  br i1 %.not, label %11, label %5

5:                                                ; preds = %2
  %6 = load ptr, ptr %3, align 8, !tbaa !3
  %7 = call ptr @Py_fopen(ptr noundef %6, ptr noundef nonnull @.str.20) #5
  %8 = call i32 @PyObject_Print(ptr noundef null, ptr noundef %7, i32 noundef 0) #5
  %9 = icmp slt i32 %8, 0
  %10 = call i32 @fclose(ptr noundef %7)
  %._Py_NoneStruct = select i1 %9, ptr null, ptr @_Py_NoneStruct
  br label %11

11:                                               ; preds = %5, %2
  %.0 = phi ptr [ null, %2 ], [ %._Py_NoneStruct, %5 ]
  call void @llvm.lifetime.end.p0(i64 8, ptr nonnull %3) #5
  ret ptr %.0
}